; Function Attrs: mustprogress nounwind uwtable
define dso_local noundef zeroext i1 @_ZNK4llvm15TargetInstrInfo24isUnpredicatedTerminatorERKNS_12MachineInstrE(ptr noundef nonnull align 8 dereferenceable(80) %0, ptr noundef nonnull align 8 dereferenceable(70) %1) local_unnamed_addr #0 align 2 {
  %3 = getelementptr inbounds nuw i8, ptr %1, i64 44
  %4 = load i32, ptr %3, align 4
  %5 = and i32 %4, 12
  %6 = icmp eq i32 %5, 0
  %7 = and i32 %4, 4
  %8 = icmp ne i32 %7, 0
  %or.cond.i.i = or i1 %6, %8
  br i1 %or.cond.i.i, label %9, label %_ZNK4llvm12MachineInstr12isTerminatorENS0_9QueryTypeE.exit

9:                                                ; preds = %2
  %10 = getelementptr inbounds nuw i8, ptr %1, i64 16
  %11 = load ptr, ptr %10, align 8
  %12 = getelementptr inbounds nuw i8, ptr %11, i64 16
  %13 = load i64, ptr %12, align 8
  %14 = and i64 %13, 512
  %.not = icmp eq i64 %14, 0
  br i1 %.not, label %59, label %16

_ZNK4llvm12MachineInstr12isTerminatorENS0_9QueryTypeE.exit: ; preds = %2
  %15 = tail call noundef zeroext i1 @_ZNK4llvm12MachineInstr19hasPropertyInBundleEmNS0_9QueryTypeE(ptr noundef nonnull align 8 dereferenceable(70) %1, i64 noundef 512, i32 noundef 1) #26
  br i1 %15, label %_ZNK4llvm12MachineInstr12isTerminatorENS0_9QueryTypeE.exit._crit_edge, label %59

_ZNK4llvm12MachineInstr12isTerminatorENS0_9QueryTypeE.exit._crit_edge: ; preds = %_ZNK4llvm12MachineInstr12isTerminatorENS0_9QueryTypeE.exit
  %.pre = load i32, ptr %3, align 4
  %.pre19 = and i32 %.pre, 12
  br label %16

16:                                               ; preds = %_ZNK4llvm12MachineInstr12isTerminatorENS0_9QueryTypeE.exit._crit_edge, %9
  %.pre-phi = phi i32 [ %.pre19, %_ZNK4llvm12MachineInstr12isTerminatorENS0_9QueryTypeE.exit._crit_edge ], [ %5, %9 ]
  %17 = phi i32 [ %.pre, %_ZNK4llvm12MachineInstr12isTerminatorENS0_9QueryTypeE.exit._crit_edge ], [ %4, %9 ]
  %18 = icmp eq i32 %.pre-phi, 0
  %19 = and i32 %17, 4
  %20 = icmp ne i32 %19, 0
  %or.cond.i.i7 = or i1 %18, %20
  br i1 %or.cond.i.i7, label %21, label %_ZNK4llvm12MachineInstr8isBranchENS0_9QueryTypeE.exit

21:                                               ; preds = %16
  %22 = getelementptr inbounds nuw i8, ptr %1, i64 16
  %23 = load ptr, ptr %22, align 8
  %24 = getelementptr inbounds nuw i8, ptr %23, i64 16
  %25 = load i64, ptr %24, align 8
  %26 = and i64 %25, 1024
  %.not13 = icmp eq i64 %26, 0
  br i1 %.not13, label %40, label %28

_ZNK4llvm12MachineInstr8isBranchENS0_9QueryTypeE.exit: ; preds = %16
  %27 = tail call noundef zeroext i1 @_ZNK4llvm12MachineInstr19hasPropertyInBundleEmNS0_9QueryTypeE(ptr noundef nonnull align 8 dereferenceable(70) %1, i64 noundef 1024, i32 noundef 1) #26
  %.pre18 = load i32, ptr %3, align 4
  br i1 %27, label %_ZNK4llvm12MachineInstr8isBranchENS0_9QueryTypeE.exit._crit_edge, label %40

_ZNK4llvm12MachineInstr8isBranchENS0_9QueryTypeE.exit._crit_edge: ; preds = %_ZNK4llvm12MachineInstr8isBranchENS0_9QueryTypeE.exit
  %.pre20 = and i32 %.pre18, 12
  br label %28

28:                                               ; preds = %_ZNK4llvm12MachineInstr8isBranchENS0_9QueryTypeE.exit._crit_edge, %21
  %.pre-phi21 = phi i32 [ %.pre20, %_ZNK4llvm12MachineInstr8isBranchENS0_9QueryTypeE.exit._crit_edge ], [ %.pre-phi, %21 ]
  %29 = phi i32 [ %.pre18, %_ZNK4llvm12MachineInstr8isBranchENS0_9QueryTypeE.exit._crit_edge ], [ %17, %21 ]
  %30 = icmp eq i32 %.pre-phi21, 0
  %31 = and i32 %29, 4
  %32 = icmp ne i32 %31, 0
  %or.cond.i.i9 = or i1 %30, %32
  br i1 %or.cond.i.i9, label %33, label %_ZNK4llvm12MachineInstr9isBarrierENS0_9QueryTypeE.exit

33:                                               ; preds = %28
  %34 = getelementptr inbounds nuw i8, ptr %1, i64 16
  %35 = load ptr, ptr %34, align 8
  %36 = getelementptr inbounds nuw i8, ptr %35, i64 16
  %37 = load i64, ptr %36, align 8
  %38 = and i64 %37, 256
  %.not14 = icmp eq i64 %38, 0
  br i1 %.not14, label %59, label %40

_ZNK4llvm12MachineInstr9isBarrierENS0_9QueryTypeE.exit: ; preds = %28
  %39 = tail call noundef zeroext i1 @_ZNK4llvm12MachineInstr19hasPropertyInBundleEmNS0_9QueryTypeE(ptr noundef nonnull align 8 dereferenceable(70) %1, i64 noundef 256, i32 noundef 1) #26
  br i1 %39, label %_ZNK4llvm12MachineInstr9isBarrierENS0_9QueryTypeE.exit._crit_edge, label %59

_ZNK4llvm12MachineInstr9isBarrierENS0_9QueryTypeE.exit._crit_edge: ; preds = %_ZNK4llvm12MachineInstr9isBarrierENS0_9QueryTypeE.exit
  %.pre17 = load i32, ptr %3, align 4
  br label %40

40:                                               ; preds = %_ZNK4llvm12MachineInstr9isBarrierENS0_9QueryTypeE.exit._crit_edge, %33, %21, %_ZNK4llvm12MachineInstr8isBranchENS0_9QueryTypeE.exit
  %41 = phi i32 [ %.pre17, %_ZNK4llvm12MachineInstr9isBarrierENS0_9QueryTypeE.exit._crit_edge ], [ %29, %33 ], [ %17, %21 ], [ %.pre18, %_ZNK4llvm12MachineInstr8isBranchENS0_9QueryTypeE.exit ]
  %42 = and i32 %41, 12
  %43 = icmp eq i32 %42, 0
  %44 = and i32 %41, 4
  %45 = icmp ne i32 %44, 0
  %or.cond.i.i11 = or i1 %43, %45
  br i1 %or.cond.i.i11, label %46, label %_ZNK4llvm12MachineInstr12isPredicableENS0_9QueryTypeE.exit

46:                                               ; preds = %40
  %47 = getelementptr inbounds nuw i8, ptr %1, i64 16
  %48 = load ptr, ptr %47, align 8
  %49 = getelementptr inbounds nuw i8, ptr %48, i64 16
  %50 = load i64, ptr %49, align 8
  %51 = and i64 %50, 4194304
  %.not15 = icmp eq i64 %51, 0
  br i1 %.not15, label %59, label %53

_ZNK4llvm12MachineInstr12isPredicableENS0_9QueryTypeE.exit: ; preds = %40
  %52 = tail call noundef zeroext i1 @_ZNK4llvm12MachineInstr19hasPropertyInBundleEmNS0_9QueryTypeE(ptr noundef nonnull align 8 dereferenceable(70) %1, i64 noundef 4194304, i32 noundef 2) #26
  br i1 %52, label %53, label %59

53:                                               ; preds = %46, %_ZNK4llvm12MachineInstr12isPredicableENS0_9QueryTypeE.exit
  %54 = load ptr, ptr %0, align 8
  %55 = getelementptr inbounds i8, ptr %54, i64 832
  %56 = load ptr, ptr %55, align 8
  %57 = tail call noundef zeroext i1 %56(ptr noundef nonnull align 8 dereferenceable(80) %0, ptr noundef nonnull align 8 dereferenceable(70) %1) #26
  %58 = xor i1 %57, true
  br label %59

59:                                               ; preds = %46, %33, %9, %_ZNK4llvm12MachineInstr12isPredicableENS0_9QueryTypeE.exit, %_ZNK4llvm12MachineInstr9isBarrierENS0_9QueryTypeE.exit, %_ZNK4llvm12MachineInstr12isTerminatorENS0_9QueryTypeE.exit, %53
  %.0 = phi i1 [ %58, %53 ], [ false, %_ZNK4llvm12MachineInstr12isTerminatorENS0_9QueryTypeE.exit ], [ true, %_ZNK4llvm12MachineInstr9isBarrierENS0_9QueryTypeE.exit ], [ true, %_ZNK4llvm12MachineInstr12isPredicableENS0_9QueryTypeE.exit ], [ false, %9 ], [ true, %33 ], [ true, %46 ]
  ret i1 %.0
}